; Function Attrs: mustprogress uwtable
define void @_ZN2cv3dnn14dnn4_v2024052111InterpLayer6createERKNS1_11LayerParamsE(ptr dead_on_unwind noalias writable sret(%"struct.cv::Ptr.6") align 8 %0, ptr noundef nonnull align 8 dereferenceable(136) %1) local_unnamed_addr #3 align 2 personality ptr @__gxx_personality_v0 {
  %3 = alloca %"class.cv::dnn::dnn4_v20240521::LayerParams", align 8
  %4 = alloca %"class.std::__cxx11::basic_string", align 8
  %5 = alloca %"class.std::allocator.0", align 1
  %6 = alloca %"class.std::__cxx11::basic_string", align 8
  %7 = alloca %"class.std::allocator.0", align 1
  %8 = alloca i8, align 1
  call void @_ZN2cv3dnn14dnn4_v2024052111LayerParamsC2ERKS2_(ptr noundef nonnull align 8 dereferenceable(136) %3, ptr noundef nonnull align 8 dereferenceable(136) %1)
  call void @_ZNSaIcEC1Ev(ptr noundef nonnull align 1 dereferenceable(1) %5) #19
  invoke void @_ZNSt7__cxx1112basic_stringIcSt11char_traitsIcESaIcEEC1EPKcRKS3_(ptr noundef nonnull align 8 dereferenceable(32) %4, ptr noundef nonnull @.str, ptr noundef nonnull align 1 dereferenceable(1) %5)
          to label %9 unwind label %33

9:                                                ; preds = %2
  %10 = invoke noundef nonnull align 1 dereferenceable(9) ptr @_ZN2cv3dnn14dnn4_v202405214Dict3setIA9_cEERKT_RKNSt7__cxx1112basic_stringIcSt11char_traitsIcESaIcEEES7_(ptr noundef nonnull align 8 dereferenceable(48) %3, ptr noundef nonnull align 8 dereferenceable(32) %4, ptr noundef nonnull align 1 dereferenceable(9) @.str.1)
          to label %11 unwind label %35

11:                                               ; preds = %9
  call void @_ZNSt7__cxx1112basic_stringIcSt11char_traitsIcESaIcEED1Ev(ptr noundef nonnull align 8 dereferenceable(32) %4) #19
  call void @_ZNSaIcED1Ev(ptr noundef nonnull align 1 dereferenceable(1) %5) #19
  call void @_ZNSaIcEC1Ev(ptr noundef nonnull align 1 dereferenceable(1) %7) #19
  invoke void @_ZNSt7__cxx1112basic_stringIcSt11char_traitsIcESaIcEEC1EPKcRKS3_(ptr noundef nonnull align 8 dereferenceable(32) %6, ptr noundef nonnull @.str.2, ptr noundef nonnull align 1 dereferenceable(1) %7)
          to label %12 unwind label %38

12:                                               ; preds = %11
  store i8 1, ptr %8, align 1
  %13 = invoke noundef nonnull align 1 dereferenceable(1) ptr @_ZN2cv3dnn14dnn4_v202405214Dict3setIbEERKT_RKNSt7__cxx1112basic_stringIcSt11char_traitsIcESaIcEEES6_(ptr noundef nonnull align 8 dereferenceable(48) %3, ptr noundef nonnull align 8 dereferenceable(32) %6, ptr noundef nonnull align 1 dereferenceable(1) %8)
          to label %14 unwind label %40

14:                                               ; preds = %12
  call void @_ZNSt7__cxx1112basic_stringIcSt11char_traitsIcESaIcEED1Ev(ptr noundef nonnull align 8 dereferenceable(32) %6) #19
  call void @_ZNSaIcED1Ev(ptr noundef nonnull align 1 dereferenceable(1) %7) #19
  %15 = invoke noalias noundef nonnull dereferenceable(168) ptr @_Znwm(i64 noundef 168) #18
          to label %16 unwind label %43

16:                                               ; preds = %14
  invoke void @_ZN2cv3dnn15ResizeLayerImplC2ERKNS0_14dnn4_v2024052111LayerParamsE(ptr noundef nonnull align 8 dereferenceable(162) %15, ptr noundef nonnull align 8 dereferenceable(136) %3)
          to label %17 unwind label %45

17:                                               ; preds = %16
  store ptr getelementptr inbounds inrange(-16, 264) (i8, ptr @_ZTVN2cv3dnn15InterpLayerImplE, i64 16), ptr %15, align 8
  store ptr %15, ptr %0, align 8
  %18 = getelementptr inbounds i8, ptr %0, i64 8
  invoke void @_ZNSt14__shared_countILN9__gnu_cxx12_Lock_policyE2EEC2IPN2cv3dnn15InterpLayerImplEEET_(ptr noundef nonnull align 8 dereferenceable(8) %18, ptr noundef nonnull %15)
          to label %_ZN2cv3PtrINS_3dnn14dnn4_v202405215LayerEEC2INS1_15InterpLayerImplEEEPT_.exit unwind label %43

_ZN2cv3PtrINS_3dnn14dnn4_v202405215LayerEEC2INS1_15InterpLayerImplEEEPT_.exit: ; preds = %17
  %19 = getelementptr inbounds i8, ptr %3, i64 104
  call void @_ZNSt7__cxx1112basic_stringIcSt11char_traitsIcESaIcEED1Ev(ptr noundef nonnull align 8 dereferenceable(32) %19) #19
  %20 = getelementptr inbounds i8, ptr %3, i64 72
  call void @_ZNSt7__cxx1112basic_stringIcSt11char_traitsIcESaIcEED1Ev(ptr noundef nonnull align 8 dereferenceable(32) %20) #19
  %21 = getelementptr inbounds i8, ptr %3, i64 48
  %22 = load ptr, ptr %21, align 8
  %23 = getelementptr inbounds i8, ptr %3, i64 56
  %24 = load ptr, ptr %23, align 8
  %.not4.i.i.i.i.i = icmp eq ptr %22, %24
  br i1 %.not4.i.i.i.i.i, label %_ZSt8_DestroyIPN2cv3MatES1_EvT_S3_RSaIT0_E.exit.i.i, label %.lr.ph.i.i.i.i.i

.lr.ph.i.i.i.i.i:                                 ; preds = %_ZN2cv3PtrINS_3dnn14dnn4_v202405215LayerEEC2INS1_15InterpLayerImplEEEPT_.exit, %.lr.ph.i.i.i.i.i
  %.05.i.i.i.i.i = phi ptr [ %25, %.lr.ph.i.i.i.i.i ], [ %22, %_ZN2cv3PtrINS_3dnn14dnn4_v202405215LayerEEC2INS1_15InterpLayerImplEEEPT_.exit ]
  call void @_ZN2cv3MatD1Ev(ptr noundef nonnull align 8 dereferenceable(96) %.05.i.i.i.i.i) #19
  %25 = getelementptr inbounds i8, ptr %.05.i.i.i.i.i, i64 96
  %.not.i.i.i.i.i = icmp eq ptr %25, %24
  br i1 %.not.i.i.i.i.i, label %_ZSt8_DestroyIPN2cv3MatES1_EvT_S3_RSaIT0_E.exitthread-pre-split.i.i, label %.lr.ph.i.i.i.i.i, !llvm.loop !6

_ZSt8_DestroyIPN2cv3MatES1_EvT_S3_RSaIT0_E.exitthread-pre-split.i.i: ; preds = %.lr.ph.i.i.i.i.i
  %.pr.i.i = load ptr, ptr %21, align 8
  br label %_ZSt8_DestroyIPN2cv3MatES1_EvT_S3_RSaIT0_E.exit.i.i

_ZSt8_DestroyIPN2cv3MatES1_EvT_S3_RSaIT0_E.exit.i.i: ; preds = %_ZSt8_DestroyIPN2cv3MatES1_EvT_S3_RSaIT0_E.exitthread-pre-split.i.i, %_ZN2cv3PtrINS_3dnn14dnn4_v202405215LayerEEC2INS1_15InterpLayerImplEEEPT_.exit
  %26 = phi ptr [ %.pr.i.i, %_ZSt8_DestroyIPN2cv3MatES1_EvT_S3_RSaIT0_E.exitthread-pre-split.i.i ], [ %22, %_ZN2cv3PtrINS_3dnn14dnn4_v202405215LayerEEC2INS1_15InterpLayerImplEEEPT_.exit ]
  %.not.i.i.i.i = icmp eq ptr %26, null
  br i1 %.not.i.i.i.i, label %_ZNSt6vectorIN2cv3MatESaIS1_EED2Ev.exit.i, label %27

27:                                               ; preds = %_ZSt8_DestroyIPN2cv3MatES1_EvT_S3_RSaIT0_E.exit.i.i
  call void @_ZdlPv(ptr noundef nonnull %26) #22
  br label %_ZNSt6vectorIN2cv3MatESaIS1_EED2Ev.exit.i

_ZNSt6vectorIN2cv3MatESaIS1_EED2Ev.exit.i:        ; preds = %27, %_ZSt8_DestroyIPN2cv3MatES1_EvT_S3_RSaIT0_E.exit.i.i
  %28 = getelementptr inbounds i8, ptr %3, i64 16
  %29 = load ptr, ptr %28, align 8
  invoke void @_ZNSt8_Rb_treeINSt7__cxx1112basic_stringIcSt11char_traitsIcESaIcEEESt4pairIKS5_N2cv3dnn14dnn4_v202405219DictValueEESt10_Select1stISC_ESt4lessIS5_ESaISC_EE8_M_eraseEPSt13_Rb_tree_nodeISC_E(ptr noundef nonnull align 8 dereferenceable(48) %3, ptr noundef %29)
          to label %_ZN2cv3dnn14dnn4_v2024052111LayerParamsD2Ev.exit unwind label %30

30:                                               ; preds = %_ZNSt6vectorIN2cv3MatESaIS1_EED2Ev.exit.i
  %31 = landingpad { ptr, i32 }
          catch ptr null
  %32 = extractvalue { ptr, i32 } %31, 0
  call void @__clang_call_terminate(ptr %32) #21
  unreachable

_ZN2cv3dnn14dnn4_v2024052111LayerParamsD2Ev.exit: ; preds = %_ZNSt6vectorIN2cv3MatESaIS1_EED2Ev.exit.i
  ret void

33:                                               ; preds = %2
  %34 = landingpad { ptr, i32 }
          cleanup
  br label %37

35:                                               ; preds = %9
  %36 = landingpad { ptr, i32 }
          cleanup
  call void @_ZNSt7__cxx1112basic_stringIcSt11char_traitsIcESaIcEED1Ev(ptr noundef nonnull align 8 dereferenceable(32) %4) #19
  br label %37

37:                                               ; preds = %35, %33
  %.pn = phi { ptr, i32 } [ %36, %35 ], [ %34, %33 ]
  call void @_ZNSaIcED1Ev(ptr noundef nonnull align 1 dereferenceable(1) %5) #19
  br label %47

38:                                               ; preds = %11
  %39 = landingpad { ptr, i32 }
          cleanup
  br label %42

40:                                               ; preds = %12
  %41 = landingpad { ptr, i32 }
          cleanup
  call void @_ZNSt7__cxx1112basic_stringIcSt11char_traitsIcESaIcEED1Ev(ptr noundef nonnull align 8 dereferenceable(32) %6) #19
  br label %42

42:                                               ; preds = %40, %38
  %.pn6 = phi { ptr, i32 } [ %41, %40 ], [ %39, %38 ]
  call void @_ZNSaIcED1Ev(ptr noundef nonnull align 1 dereferenceable(1) %7) #19
  br label %47

43:                                               ; preds = %17, %14
  %44 = landingpad { ptr, i32 }
          cleanup
  br label %47

45:                                               ; preds = %16
  %46 = landingpad { ptr, i32 }
          cleanup
  call void @_ZdlPv(ptr noundef nonnull %15) #22
  br label %47

47:                                               ; preds = %45, %43, %42, %37
  %.pn8 = phi { ptr, i32 } [ %44, %43 ], [ %46, %45 ], [ %.pn6, %42 ], [ %.pn, %37 ]
  call void @_ZN2cv3dnn14dnn4_v2024052111LayerParamsD2Ev(ptr noundef nonnull align 8 dereferenceable(136) %3) #19
  resume { ptr, i32 } %.pn8
}